target datalayout = "e-m:e-p270:32:32-p271:32:32-p272:64:64-i64:64-i128:128-f80:128-n8:16:32:64-S128"
target triple = "x86_64-pc-linux-gnu"

%"class.std::vector.5" = type { %"struct.std::_Vector_base.6" }
%"struct.std::_Vector_base.6" = type { %"struct.std::_Vector_base<WasmEdge::ValType, std::allocator<WasmEdge::ValType>>::_Vector_impl" }
%"struct.std::_Vector_base<WasmEdge::ValType, std::allocator<WasmEdge::ValType>>::_Vector_impl" = type { %"struct.std::_Vector_base<WasmEdge::ValType, std::allocator<WasmEdge::ValType>>::_Vector_impl_data" }
%"struct.std::_Vector_base<WasmEdge::ValType, std::allocator<WasmEdge::ValType>>::_Vector_impl_data" = type { ptr, ptr, ptr }
%"struct.cxx20::span.35" = type { %"class.cxx20::detail::span_storage.36" }
%"class.cxx20::detail::span_storage.36" = type { ptr, i64 }
%"struct.WasmEdge::Validator::FormChecker::CtrlFrame" = type { %"class.std::vector.5", %"class.std::vector.5", ptr, i64, i64, i8, i32 }

; Function Attrs: mustprogress nounwind uwtable
define linkonce_odr hidden noundef ptr @_ZNKSt6vectorIN8WasmEdge7ValTypeESaIS1_EE11_M_data_ptrIS1_EEPT_S6_(ptr noundef nonnull align 8 dereferenceable(24) %0, ptr noundef %1) #0 comdat align 2 {
  %3 = alloca ptr, align 8
  %4 = alloca ptr, align 8
  store ptr %0, ptr %3, align 8
  store ptr %1, ptr %4, align 8
  %5 = load ptr, ptr %4, align 8
  ret ptr %5
}

; Function Attrs: mustprogress nounwind uwtable
define linkonce_odr hidden noundef i64 @_ZNKSt6vectorIN8WasmEdge7ValTypeESaIS1_EE4sizeEv(ptr noundef nonnull align 8 dereferenceable(24) %0) #0 comdat align 2 {
  %2 = alloca ptr, align 8
  store ptr %0, ptr %2, align 8
  %3 = load ptr, ptr %2, align 8
  %4 = getelementptr inbounds %"struct.std::_Vector_base.6", ptr %3, i32 0, i32 0
  %5 = getelementptr inbounds %"struct.std::_Vector_base<WasmEdge::ValType, std::allocator<WasmEdge::ValType>>::_Vector_impl_data", ptr %4, i32 0, i32 1
  %6 = load ptr, ptr %5, align 8
  %7 = getelementptr inbounds %"struct.std::_Vector_base.6", ptr %3, i32 0, i32 0
  %8 = getelementptr inbounds %"struct.std::_Vector_base<WasmEdge::ValType, std::allocator<WasmEdge::ValType>>::_Vector_impl_data", ptr %7, i32 0, i32 0
  %9 = load ptr, ptr %8, align 8
  %10 = ptrtoint ptr %6 to i64
  %11 = ptrtoint ptr %9 to i64
  %12 = sub i64 %10, %11
  %13 = sdiv exact i64 %12, 8
  ret i64 %13
}

; Function Attrs: mustprogress nounwind uwtable
define linkonce_odr hidden noundef ptr @_ZNKSt6vectorIN8WasmEdge7ValTypeESaIS1_EE4dataEv(ptr noundef nonnull align 8 dereferenceable(24) %0) #0 comdat align 2 {
  %2 = alloca ptr, align 8
  store ptr %0, ptr %2, align 8
  %3 = load ptr, ptr %2, align 8
  %4 = getelementptr inbounds %"struct.std::_Vector_base.6", ptr %3, i32 0, i32 0
  %5 = getelementptr inbounds %"struct.std::_Vector_base<WasmEdge::ValType, std::allocator<WasmEdge::ValType>>::_Vector_impl_data", ptr %4, i32 0, i32 0
  %6 = load ptr, ptr %5, align 8
  %7 = call noundef ptr @_ZNKSt6vectorIN8WasmEdge7ValTypeESaIS1_EE11_M_data_ptrIS1_EEPT_S6_(ptr noundef nonnull align 8 dereferenceable(24) %3, ptr noundef %6) #15
  ret ptr %7
}

; Function Attrs: mustprogress nounwind uwtable
define linkonce_odr hidden void @_ZN5cxx206detail12span_storageIKN8WasmEdge7ValTypeELm18446744073709551615EEC2EPS4_m(ptr noundef nonnull align 8 dereferenceable(16) %0, ptr noundef %1, i64 noundef %2) unnamed_addr #0 comdat align 2 {
  %4 = alloca ptr, align 8
  %5 = alloca ptr, align 8
  %6 = alloca i64, align 8
  store ptr %0, ptr %4, align 8
  store ptr %1, ptr %5, align 8
  store i64 %2, ptr %6, align 8
  %7 = load ptr, ptr %4, align 8
  %8 = getelementptr inbounds %"class.cxx20::detail::span_storage.36", ptr %7, i32 0, i32 0
  %9 = load ptr, ptr %5, align 8
  store ptr %9, ptr %8, align 8
  %10 = getelementptr inbounds %"class.cxx20::detail::span_storage.36", ptr %7, i32 0, i32 1
  %11 = load i64, ptr %6, align 8
  store i64 %11, ptr %10, align 8
  ret void
}

; Function Attrs: mustprogress nounwind uwtable
define linkonce_odr noundef i64 @_ZSt4sizeISt6vectorIN8WasmEdge7ValTypeESaIS2_EEEDTcldtfp_4sizeEERKT_(ptr noundef nonnull align 8 dereferenceable(24) %0) #0 comdat {
  %2 = alloca ptr, align 8
  store ptr %0, ptr %2, align 8
  %3 = load ptr, ptr %2, align 8
  %4 = call noundef i64 @_ZNKSt6vectorIN8WasmEdge7ValTypeESaIS1_EE4sizeEv(ptr noundef nonnull align 8 dereferenceable(24) %3) #15
  ret i64 %4
}

; Function Attrs: mustprogress nounwind uwtable
define linkonce_odr noundef ptr @_ZSt4dataISt6vectorIN8WasmEdge7ValTypeESaIS2_EEEDTcldtfp_4dataEERKT_(ptr noundef nonnull align 8 dereferenceable(24) %0) #0 comdat {
  %2 = alloca ptr, align 8
  store ptr %0, ptr %2, align 8
  %3 = load ptr, ptr %2, align 8
  %4 = call noundef ptr @_ZNKSt6vectorIN8WasmEdge7ValTypeESaIS1_EE4dataEv(ptr noundef nonnull align 8 dereferenceable(24) %3) #15
  ret ptr %4
}

; Function Attrs: mustprogress nounwind uwtable
define linkonce_odr hidden void @_ZN5cxx204spanIKN8WasmEdge7ValTypeELm18446744073709551615EEC2IRKSt6vectorIS2_SaIS2_EETnPNSt9enable_ifIXaasr6detailE18is_generic_range_vIT_Esr6detailE21is_compatible_range_vIS3_SC_EEvE4typeELPv0EEEOSC_(ptr noundef nonnull align 8 dereferenceable(16) %0, ptr noundef nonnull align 8 dereferenceable(24) %1) unnamed_addr #0 comdat align 2 {
  %3 = alloca ptr, align 8
  %4 = alloca ptr, align 8
  store ptr %0, ptr %3, align 8
  store ptr %1, ptr %4, align 8
  %5 = load ptr, ptr %3, align 8
  %6 = load ptr, ptr %4, align 8
  %7 = call noundef ptr @_ZSt4dataISt6vectorIN8WasmEdge7ValTypeESaIS2_EEEDTcldtfp_4dataEERKT_(ptr noundef nonnull align 8 dereferenceable(24) %6) #15
  %8 = load ptr, ptr %4, align 8
  %9 = call noundef i64 @_ZSt4sizeISt6vectorIN8WasmEdge7ValTypeESaIS2_EEEDTcldtfp_4sizeEERKT_(ptr noundef nonnull align 8 dereferenceable(24) %8) #15
  call void @_ZN5cxx206detail12span_storageIKN8WasmEdge7ValTypeELm18446744073709551615EEC2EPS4_m(ptr noundef nonnull align 8 dereferenceable(16) %5, ptr noundef %7, i64 noundef %9) #15
  ret void
}

; Function Attrs: mustprogress uwtable
define { ptr, i64 } @_ZN8WasmEdge9Validator11FormChecker13getLabelTypesERKNS1_9CtrlFrameE(ptr noundef nonnull align 8 dereferenceable(360) %0, ptr noundef nonnull align 8 dereferenceable(80) %1) #1 align 2 {
  %3 = alloca %"struct.cxx20::span.35", align 8
  %4 = alloca ptr, align 8
  %5 = alloca ptr, align 8
  store ptr %0, ptr %4, align 8
  store ptr %1, ptr %5, align 8
  %6 = load ptr, ptr %5, align 8
  %7 = getelementptr inbounds %"struct.WasmEdge::Validator::FormChecker::CtrlFrame", ptr %6, i32 0, i32 6
  %8 = load i32, ptr %7, align 4
  %9 = icmp eq i32 %8, 3
  br i1 %9, label %10, label %13

10:                                               ; preds = %2
  %11 = load ptr, ptr %5, align 8
  %12 = getelementptr inbounds %"struct.WasmEdge::Validator::FormChecker::CtrlFrame", ptr %11, i32 0, i32 0
  call void @_ZN5cxx204spanIKN8WasmEdge7ValTypeELm18446744073709551615EEC2IRKSt6vectorIS2_SaIS2_EETnPNSt9enable_ifIXaasr6detailE18is_generic_range_vIT_Esr6detailE21is_compatible_range_vIS3_SC_EEvE4typeELPv0EEEOSC_(ptr noundef nonnull align 8 dereferenceable(16) %3, ptr noundef nonnull align 8 dereferenceable(24) %12)
  br label %16

13:                                               ; preds = %2
  %14 = load ptr, ptr %5, align 8
  %15 = getelementptr inbounds %"struct.WasmEdge::Validator::FormChecker::CtrlFrame", ptr %14, i32 0, i32 1
  call void @_ZN5cxx204spanIKN8WasmEdge7ValTypeELm18446744073709551615EEC2IRKSt6vectorIS2_SaIS2_EETnPNSt9enable_ifIXaasr6detailE18is_generic_range_vIT_Esr6detailE21is_compatible_range_vIS3_SC_EEvE4typeELPv0EEEOSC_(ptr noundef nonnull align 8 dereferenceable(16) %3, ptr noundef nonnull align 8 dereferenceable(24) %15)
  br label %16

16:                                               ; preds = %13, %10
  %17 = getelementptr inbounds %"struct.cxx20::span.35", ptr %3, i32 0, i32 0
  %18 = load { ptr, i64 }, ptr %17, align 8
  ret { ptr, i64 } %18
}