; Function Attrs: mustprogress nofree norecurse nosync nounwind willreturn memory(argmem: read) uwtable
define { ptr, i64 } @_ZN8WasmEdge9Validator11FormChecker13getLabelTypesERKNS1_9CtrlFrameE(ptr noundef nonnull readnone align 8 captures(none) dereferenceable(360) %0, ptr noundef nonnull readonly align 8 captures(none) dereferenceable(80) %1) local_unnamed_addr #6 align 2 {
  %3 = getelementptr inbounds nuw i8, ptr %1, i64 76
  %4 = load i32, ptr %3, align 4
  %5 = icmp eq i32 %4, 3
  %6 = getelementptr inbounds nuw i8, ptr %1, i64 24
  %7 = load ptr, ptr %6, align 8
  %8 = load ptr, ptr %1, align 8
  %.sink6 = select i1 %5, i64 8, i64 32
  %.sink4 = select i1 %5, ptr %8, ptr %7
  %.sroa.0.0 = select i1 %5, ptr %8, ptr %7
  %9 = getelementptr inbounds nuw i8, ptr %1, i64 %.sink6
  %10 = load ptr, ptr %9, align 8
  %11 = ptrtoint ptr %10 to i64
  %12 = ptrtoint ptr %.sink4 to i64
  %13 = sub i64 %11, %12
  %.sroa.3.0 = ashr exact i64 %13, 3
  %.fca.0.insert = insertvalue { ptr, i64 } poison, ptr %.sroa.0.0, 0
  %.fca.1.insert = insertvalue { ptr, i64 } %.fca.0.insert, i64 %.sroa.3.0, 1
  ret { ptr, i64 } %.fca.1.insert
}